(dp0
S'4031717'
p1
F2.1999999999999997
sS'3691764'
p2
I0
sS'2668997'
p3
F658.75
sS'4252472'
p4
F7.6
sS'2062493'
p5
F101.13333333333333
sS'880570'
p6
F1605.4166666666667
sS'2983264'
p7
F2185.1875
sS'4361274'
p8
F1.0
sS'3480980'
p9
F0.95
sS'1018695'
p10
F11794.45
sS'2257059'
p11
F155.75
sS'4361272'
p12
F1682.5
sS'825678'
p13
F2246.233333333333
sS'370259'
p14
F114.15714285714286
sS'2008912'
p15
F199.9
sS'4369463'
p16
F4106.625
sS'1450535'
p17
I0
sS'968457'
p18
F22.5
sS'1902203'
p19
F3203.475
sS'4134638'
p20
I0
sS'4049070'
p21
F1.0
sS'1879897'
p22
F10344.833333333334
sS'2705091'
p23
F901.5
sS'978807'
p24
F2.5
sS'2705096'
p25
F325.0142857142857
s.